; Function Attrs: mustprogress nounwind uwtable
define hidden noundef ptr @_ZNK22ShenandoahBarrierSetC221shenandoah_iu_barrierEP8GraphKitP4Node(ptr nocapture noundef nonnull readnone align 8 dereferenceable(8) %0, ptr nocapture noundef readonly %1, ptr noundef %2) local_unnamed_addr #1 align 2 {
  %4 = load i8, ptr @ShenandoahIUBarrier, align 1
  %5 = trunc i8 %4 to i1
  br i1 %5, label %6, label %34

6:                                                ; preds = %3
  %7 = getelementptr inbounds i8, ptr %1, i64 32
  %8 = load ptr, ptr %7, align 8
  %9 = tail call align 8 ptr @llvm.threadlocal.address.p0(ptr align 8 @_ZN6Thread12_thr_currentE)
  %10 = load ptr, ptr %9, align 8
  %11 = getelementptr inbounds i8, ptr %10, i64 1808
  %12 = load ptr, ptr %11, align 8
  %13 = getelementptr inbounds i8, ptr %12, i64 128
  %14 = load ptr, ptr %13, align 8
  %15 = getelementptr inbounds i8, ptr %14, i64 728
  %16 = load ptr, ptr %15, align 8
  %17 = getelementptr inbounds i8, ptr %16, i64 40
  %18 = load ptr, ptr %17, align 8
  %19 = getelementptr inbounds i8, ptr %16, i64 32
  %20 = load ptr, ptr %19, align 8
  %21 = ptrtoint ptr %18 to i64
  %22 = ptrtoint ptr %20 to i64
  %23 = sub i64 %21, %22
  %.not.i.i.i = icmp ult i64 %23, 56
  br i1 %.not.i.i.i, label %26, label %24

24:                                               ; preds = %6
  %25 = getelementptr inbounds i8, ptr %20, i64 56
  store ptr %25, ptr %19, align 8
  br label %_ZN4NodenwEm.exit

26:                                               ; preds = %6
  %27 = tail call noundef ptr @_ZN5Arena4growEmN17AllocFailStrategy13AllocFailEnumE(ptr noundef nonnull align 8 dereferenceable(48) %16, i64 noundef 56, i32 noundef 0) #14
  br label %_ZN4NodenwEm.exit

_ZN4NodenwEm.exit:                                ; preds = %24, %26
  %.0.i.i.i = phi ptr [ %20, %24 ], [ %27, %26 ]
  %28 = icmp eq ptr %.0.i.i.i, null
  br i1 %28, label %30, label %29

29:                                               ; preds = %_ZN4NodenwEm.exit
  tail call void @_ZN23ShenandoahIUBarrierNodeC1EP4Node(ptr noundef nonnull align 8 dereferenceable(52) %.0.i.i.i, ptr noundef %2) #14
  br label %30

30:                                               ; preds = %29, %_ZN4NodenwEm.exit
  %31 = load ptr, ptr %8, align 8
  %32 = load ptr, ptr %31, align 8
  %33 = tail call noundef ptr %32(ptr noundef nonnull align 8 dereferenceable(2400) %8, ptr noundef %.0.i.i.i) #14
  br label %34

34:                                               ; preds = %3, %30
  %.0 = phi ptr [ %33, %30 ], [ %2, %3 ]
  ret ptr %.0
}